; Function Attrs: nounwind sspstrong uwtable
define internal fastcc range(i32 -1, 1) i32 @qcrypto_block_luks_store_header(ptr noundef %block, ptr noundef readonly captures(none) %writefunc, ptr noundef %opaque, ptr noundef %errp) unnamed_addr #1 {
entry:
  %local_err = alloca ptr, align 8
  %opaque1 = getelementptr inbounds nuw i8, ptr %block, i64 16
  %0 = load ptr, ptr %opaque1, align 8
  store ptr null, ptr %local_err, align 8
  %call = tail call noalias dereferenceable_or_null(592) ptr @g_malloc0_n(i64 noundef 1, i64 noundef 592) #17
  tail call void @llvm.memcpy.p0.p0.i64(ptr noundef nonnull align 4 dereferenceable(592) %call, ptr noundef nonnull align 8 dereferenceable(592) %0, i64 592, i1 false)
  %version.i = getelementptr inbounds nuw i8, ptr %call, i64 6
  %1 = load i16, ptr %version.i, align 2
  %2 = tail call i16 @llvm.bswap.i16(i16 %1)
  store i16 %2, ptr %version.i, align 2
  %payload_offset_sector.i = getelementptr inbounds nuw i8, ptr %call, i64 104
  %3 = load i32, ptr %payload_offset_sector.i, align 4
  %4 = tail call i32 @llvm.bswap.i32(i32 %3)
  store i32 %4, ptr %payload_offset_sector.i, align 4
  %master_key_len.i = getelementptr inbounds nuw i8, ptr %call, i64 108
  %5 = load i32, ptr %master_key_len.i, align 4
  %6 = tail call i32 @llvm.bswap.i32(i32 %5)
  store i32 %6, ptr %master_key_len.i, align 4
  %master_key_iterations.i = getelementptr inbounds nuw i8, ptr %call, i64 164
  %7 = load i32, ptr %master_key_iterations.i, align 4
  %8 = tail call i32 @llvm.bswap.i32(i32 %7)
  store i32 %8, ptr %master_key_iterations.i, align 4
  %key_slots.i = getelementptr inbounds nuw i8, ptr %call, i64 208
  br label %for.body.i

for.body.i:                                       ; preds = %for.body.i, %entry
  %i.013.i = phi i64 [ 0, %entry ], [ %inc.i, %for.body.i ]
  %arrayidx.i = getelementptr [8 x %struct.QCryptoBlockLUKSKeySlot], ptr %key_slots.i, i64 0, i64 %i.013.i
  %9 = load i32, ptr %arrayidx.i, align 4
  %10 = tail call i32 @llvm.bswap.i32(i32 %9)
  store i32 %10, ptr %arrayidx.i, align 4
  %iterations.i = getelementptr inbounds nuw i8, ptr %arrayidx.i, i64 4
  %11 = load i32, ptr %iterations.i, align 4
  %12 = tail call i32 @llvm.bswap.i32(i32 %11)
  store i32 %12, ptr %iterations.i, align 4
  %key_offset_sector.i = getelementptr inbounds nuw i8, ptr %arrayidx.i, i64 40
  %13 = load i32, ptr %key_offset_sector.i, align 4
  %14 = tail call i32 @llvm.bswap.i32(i32 %13)
  store i32 %14, ptr %key_offset_sector.i, align 4
  %stripes.i = getelementptr inbounds nuw i8, ptr %arrayidx.i, i64 44
  %15 = load i32, ptr %stripes.i, align 4
  %16 = tail call i32 @llvm.bswap.i32(i32 %15)
  store i32 %16, ptr %stripes.i, align 4
  %inc.i = add nuw nsw i64 %i.013.i, 1
  %exitcond.not.i = icmp eq i64 %inc.i, 8
  br i1 %exitcond.not.i, label %qcrypto_block_luks_to_disk_endian.exit, label %for.body.i, !llvm.loop !5

qcrypto_block_luks_to_disk_endian.exit:           ; preds = %for.body.i
  %call2 = call i32 %writefunc(ptr noundef %block, i64 noundef 0, ptr noundef nonnull %call, i64 noundef 592, ptr noundef %opaque, ptr noundef nonnull %local_err) #16
  %17 = load ptr, ptr %local_err, align 8
  %tobool.not = icmp eq ptr %17, null
  br i1 %tobool.not, label %cleanup, label %if.then

if.then:                                          ; preds = %qcrypto_block_luks_to_disk_endian.exit
  call void @error_propagate(ptr noundef %errp, ptr noundef nonnull %17) #16
  br label %cleanup

cleanup:                                          ; preds = %qcrypto_block_luks_to_disk_endian.exit, %if.then
  %retval.0 = phi i32 [ -1, %if.then ], [ 0, %qcrypto_block_luks_to_disk_endian.exit ]
  call void @g_free(ptr noundef nonnull %call) #16
  ret i32 %retval.0
}